target datalayout = "e-m:e-p270:32:32-p271:32:32-p272:64:64-i64:64-i128:128-f80:128-n8:16:32:64-S128"
target triple = "x86_64-pc-linux-gnu"

%struct.stat = type { i64, i64, i64, i32, i32, i32, i32, i64, i64, i64, i64, %struct.timespec, %struct.timespec, %struct.timespec, [3 x i64] }
%struct.timespec = type { i64, i64 }
%struct.stat_data = type { %struct.cache_time, %struct.cache_time, i32, i32, i32, i32, i32 }
%struct.cache_time = type { i32, i32 }
%struct.stat_validity = type { ptr }

; Function Attrs: nounwind uwtable
define internal i32 @munge_st_size(i64 noundef %0) #0 {
  %2 = alloca i32, align 4
  %3 = alloca i64, align 8
  %4 = alloca i32, align 4
  %5 = alloca i32, align 4
  store i64 %0, ptr %3, align 8, !tbaa !35
  call void @llvm.lifetime.start.p0(i64 4, ptr %4) #4
  %6 = load i64, ptr %3, align 8, !tbaa !35
  %7 = trunc i64 %6 to i32
  store i32 %7, ptr %4, align 4, !tbaa !36
  %8 = load i32, ptr %4, align 4, !tbaa !36
  %9 = icmp ne i32 %8, 0
  br i1 %9, label %14, label %10

10:                                               ; preds = %1
  %11 = load i64, ptr %3, align 8, !tbaa !35
  %12 = icmp ne i64 %11, 0
  br i1 %12, label %13, label %14

13:                                               ; preds = %10
  store i32 -2147483648, ptr %2, align 4
  store i32 1, ptr %5, align 4
  br label %16

14:                                               ; preds = %10, %1
  %15 = load i32, ptr %4, align 4, !tbaa !36
  store i32 %15, ptr %2, align 4
  store i32 1, ptr %5, align 4
  br label %16

16:                                               ; preds = %14, %13
  call void @llvm.lifetime.end.p0(i64 4, ptr %4) #4
  %17 = load i32, ptr %2, align 4
  ret i32 %17
}

; Function Attrs: nounwind uwtable
define dso_local void @fill_stat_data(ptr noundef %0, ptr noundef %1) #0 {
  %3 = alloca ptr, align 8
  %4 = alloca ptr, align 8
  store ptr %0, ptr %3, align 8, !tbaa !4
  store ptr %1, ptr %4, align 8, !tbaa !9
  %5 = load ptr, ptr %4, align 8, !tbaa !9
  %6 = getelementptr inbounds nuw %struct.stat, ptr %5, i32 0, i32 13
  %7 = getelementptr inbounds nuw %struct.timespec, ptr %6, i32 0, i32 0
  %8 = load i64, ptr %7, align 8, !tbaa !11
  %9 = trunc i64 %8 to i32
  %10 = load ptr, ptr %3, align 8, !tbaa !4
  %11 = getelementptr inbounds nuw %struct.stat_data, ptr %10, i32 0, i32 0
  %12 = getelementptr inbounds nuw %struct.cache_time, ptr %11, i32 0, i32 0
  store i32 %9, ptr %12, align 4, !tbaa !16
  %13 = load ptr, ptr %4, align 8, !tbaa !9
  %14 = getelementptr inbounds nuw %struct.stat, ptr %13, i32 0, i32 12
  %15 = getelementptr inbounds nuw %struct.timespec, ptr %14, i32 0, i32 0
  %16 = load i64, ptr %15, align 8, !tbaa !19
  %17 = trunc i64 %16 to i32
  %18 = load ptr, ptr %3, align 8, !tbaa !4
  %19 = getelementptr inbounds nuw %struct.stat_data, ptr %18, i32 0, i32 1
  %20 = getelementptr inbounds nuw %struct.cache_time, ptr %19, i32 0, i32 0
  store i32 %17, ptr %20, align 4, !tbaa !20
  %21 = load ptr, ptr %4, align 8, !tbaa !9
  %22 = getelementptr inbounds nuw %struct.stat, ptr %21, i32 0, i32 13
  %23 = getelementptr inbounds nuw %struct.timespec, ptr %22, i32 0, i32 1
  %24 = load i64, ptr %23, align 8, !tbaa !21
  %25 = trunc i64 %24 to i32
  %26 = load ptr, ptr %3, align 8, !tbaa !4
  %27 = getelementptr inbounds nuw %struct.stat_data, ptr %26, i32 0, i32 0
  %28 = getelementptr inbounds nuw %struct.cache_time, ptr %27, i32 0, i32 1
  store i32 %25, ptr %28, align 4, !tbaa !22
  %29 = load ptr, ptr %4, align 8, !tbaa !9
  %30 = getelementptr inbounds nuw %struct.stat, ptr %29, i32 0, i32 12
  %31 = getelementptr inbounds nuw %struct.timespec, ptr %30, i32 0, i32 1
  %32 = load i64, ptr %31, align 8, !tbaa !23
  %33 = trunc i64 %32 to i32
  %34 = load ptr, ptr %3, align 8, !tbaa !4
  %35 = getelementptr inbounds nuw %struct.stat_data, ptr %34, i32 0, i32 1
  %36 = getelementptr inbounds nuw %struct.cache_time, ptr %35, i32 0, i32 1
  store i32 %33, ptr %36, align 4, !tbaa !24
  %37 = load ptr, ptr %4, align 8, !tbaa !9
  %38 = getelementptr inbounds nuw %struct.stat, ptr %37, i32 0, i32 0
  %39 = load i64, ptr %38, align 8, !tbaa !25
  %40 = trunc i64 %39 to i32
  %41 = load ptr, ptr %3, align 8, !tbaa !4
  %42 = getelementptr inbounds nuw %struct.stat_data, ptr %41, i32 0, i32 2
  store i32 %40, ptr %42, align 4, !tbaa !26
  %43 = load ptr, ptr %4, align 8, !tbaa !9
  %44 = getelementptr inbounds nuw %struct.stat, ptr %43, i32 0, i32 1
  %45 = load i64, ptr %44, align 8, !tbaa !27
  %46 = trunc i64 %45 to i32
  %47 = load ptr, ptr %3, align 8, !tbaa !4
  %48 = getelementptr inbounds nuw %struct.stat_data, ptr %47, i32 0, i32 3
  store i32 %46, ptr %48, align 4, !tbaa !28
  %49 = load ptr, ptr %4, align 8, !tbaa !9
  %50 = getelementptr inbounds nuw %struct.stat, ptr %49, i32 0, i32 4
  %51 = load i32, ptr %50, align 4, !tbaa !29
  %52 = load ptr, ptr %3, align 8, !tbaa !4
  %53 = getelementptr inbounds nuw %struct.stat_data, ptr %52, i32 0, i32 4
  store i32 %51, ptr %53, align 4, !tbaa !30
  %54 = load ptr, ptr %4, align 8, !tbaa !9
  %55 = getelementptr inbounds nuw %struct.stat, ptr %54, i32 0, i32 5
  %56 = load i32, ptr %55, align 8, !tbaa !31
  %57 = load ptr, ptr %3, align 8, !tbaa !4
  %58 = getelementptr inbounds nuw %struct.stat_data, ptr %57, i32 0, i32 5
  store i32 %56, ptr %58, align 4, !tbaa !32
  %59 = load ptr, ptr %4, align 8, !tbaa !9
  %60 = getelementptr inbounds nuw %struct.stat, ptr %59, i32 0, i32 8
  %61 = load i64, ptr %60, align 8, !tbaa !33
  %62 = call i32 @munge_st_size(i64 noundef %61)
  %63 = load ptr, ptr %3, align 8, !tbaa !4
  %64 = getelementptr inbounds nuw %struct.stat_data, ptr %63, i32 0, i32 6
  store i32 %62, ptr %64, align 4, !tbaa !34
  ret void
}

; Function Attrs: nounwind uwtable
define dso_local void @stat_validity_clear(ptr noundef %0) #0 {
  %2 = alloca ptr, align 8
  store ptr %0, ptr %2, align 8, !tbaa !37
  br label %3

3:                                                ; preds = %1
  %4 = load ptr, ptr %2, align 8, !tbaa !37
  %5 = getelementptr inbounds nuw %struct.stat_validity, ptr %4, i32 0, i32 0
  %6 = load ptr, ptr %5, align 8, !tbaa !39
  call void @free(ptr noundef %6) #4
  %7 = load ptr, ptr %2, align 8, !tbaa !37
  %8 = getelementptr inbounds nuw %struct.stat_validity, ptr %7, i32 0, i32 0
  store ptr null, ptr %8, align 8, !tbaa !39
  br label %9

9:                                                ; preds = %3
  ret void
}

; Function Attrs: nounwind uwtable
define dso_local void @stat_validity_update(ptr noundef %0, i32 noundef %1) #0 {
  %3 = alloca ptr, align 8
  %4 = alloca i32, align 4
  %5 = alloca %struct.stat, align 8
  store ptr %0, ptr %3, align 8, !tbaa !37
  store i32 %1, ptr %4, align 4, !tbaa !36
  call void @llvm.lifetime.start.p0(i64 144, ptr %5) #4
  %6 = load i32, ptr %4, align 4, !tbaa !36
  %7 = call i32 @fstat64(i32 noundef %6, ptr noundef %5) #4
  %8 = icmp slt i32 %7, 0
  br i1 %8, label %14, label %9

9:                                                ; preds = %2
  %10 = getelementptr inbounds nuw %struct.stat, ptr %5, i32 0, i32 3
  %11 = load i32, ptr %10, align 8, !tbaa !43
  %12 = and i32 %11, 61440
  %13 = icmp eq i32 %12, 32768
  br i1 %13, label %16, label %14

14:                                               ; preds = %9, %2
  %15 = load ptr, ptr %3, align 8, !tbaa !37
  call void @stat_validity_clear(ptr noundef %15)
  br label %29

16:                                               ; preds = %9
  %17 = load ptr, ptr %3, align 8, !tbaa !37
  %18 = getelementptr inbounds nuw %struct.stat_validity, ptr %17, i32 0, i32 0
  %19 = load ptr, ptr %18, align 8, !tbaa !39
  %20 = icmp ne ptr %19, null
  br i1 %20, label %25, label %21

21:                                               ; preds = %16
  %22 = call ptr @xcalloc(i64 noundef 1, i64 noundef 36)
  %23 = load ptr, ptr %3, align 8, !tbaa !37
  %24 = getelementptr inbounds nuw %struct.stat_validity, ptr %23, i32 0, i32 0
  store ptr %22, ptr %24, align 8, !tbaa !39
  br label %25

25:                                               ; preds = %21, %16
  %26 = load ptr, ptr %3, align 8, !tbaa !37
  %27 = getelementptr inbounds nuw %struct.stat_validity, ptr %26, i32 0, i32 0
  %28 = load ptr, ptr %27, align 8, !tbaa !39
  call void @fill_stat_data(ptr noundef %28, ptr noundef %5)
  br label %29

29:                                               ; preds = %25, %14
  call void @llvm.lifetime.end.p0(i64 144, ptr %5) #4
  ret void
}