; Function Attrs: nounwind uwtable
define dso_local void @stat_validity_update(ptr noundef captures(none) %0, i32 noundef %1) local_unnamed_addr #7 {
  %3 = alloca %struct.stat, align 8
  call void @llvm.lifetime.start.p0(i64 144, ptr nonnull %3) #9
  %4 = call i32 @fstat64(i32 noundef %1, ptr noundef nonnull %3) #9
  %5 = icmp slt i32 %4, 0
  br i1 %5, label %11, label %6

6:                                                ; preds = %2
  %7 = getelementptr inbounds nuw i8, ptr %3, i64 24
  %8 = load i32, ptr %7, align 8, !tbaa !35
  %9 = and i32 %8, 61440
  %10 = icmp eq i32 %9, 32768
  br i1 %10, label %13, label %11

11:                                               ; preds = %6, %2
  %12 = load ptr, ptr %0, align 8, !tbaa !31
  tail call void @free(ptr noundef %12) #9
  store ptr null, ptr %0, align 8, !tbaa !31
  br label %53

13:                                               ; preds = %6
  %14 = load ptr, ptr %0, align 8, !tbaa !31
  %.not = icmp eq ptr %14, null
  br i1 %.not, label %15, label %17

15:                                               ; preds = %13
  %16 = tail call ptr @xcalloc(i64 noundef 1, i64 noundef 36) #9
  store ptr %16, ptr %0, align 8, !tbaa !31
  br label %17

17:                                               ; preds = %15, %13
  %18 = phi ptr [ %16, %15 ], [ %14, %13 ]
  %19 = getelementptr inbounds nuw i8, ptr %3, i64 104
  %20 = load i64, ptr %19, align 8, !tbaa !4
  %21 = trunc i64 %20 to i32
  store i32 %21, ptr %18, align 4, !tbaa !11
  %22 = getelementptr inbounds nuw i8, ptr %3, i64 88
  %23 = load i64, ptr %22, align 8, !tbaa !14
  %24 = trunc i64 %23 to i32
  %25 = getelementptr inbounds nuw i8, ptr %18, i64 8
  store i32 %24, ptr %25, align 4, !tbaa !15
  %26 = getelementptr inbounds nuw i8, ptr %3, i64 112
  %27 = load i64, ptr %26, align 8, !tbaa !16
  %28 = trunc i64 %27 to i32
  %29 = getelementptr inbounds nuw i8, ptr %18, i64 4
  store i32 %28, ptr %29, align 4, !tbaa !17
  %30 = getelementptr inbounds nuw i8, ptr %3, i64 96
  %31 = load i64, ptr %30, align 8, !tbaa !18
  %32 = trunc i64 %31 to i32
  %33 = getelementptr inbounds nuw i8, ptr %18, i64 12
  store i32 %32, ptr %33, align 4, !tbaa !19
  %34 = load i64, ptr %3, align 8, !tbaa !20
  %35 = trunc i64 %34 to i32
  %36 = getelementptr inbounds nuw i8, ptr %18, i64 16
  store i32 %35, ptr %36, align 4, !tbaa !21
  %37 = getelementptr inbounds nuw i8, ptr %3, i64 8
  %38 = load i64, ptr %37, align 8, !tbaa !22
  %39 = trunc i64 %38 to i32
  %40 = getelementptr inbounds nuw i8, ptr %18, i64 20
  store i32 %39, ptr %40, align 4, !tbaa !23
  %41 = getelementptr inbounds nuw i8, ptr %3, i64 28
  %42 = load i32, ptr %41, align 4, !tbaa !24
  %43 = getelementptr inbounds nuw i8, ptr %18, i64 24
  store i32 %42, ptr %43, align 4, !tbaa !25
  %44 = getelementptr inbounds nuw i8, ptr %3, i64 32
  %45 = load i32, ptr %44, align 8, !tbaa !26
  %46 = getelementptr inbounds nuw i8, ptr %18, i64 28
  store i32 %45, ptr %46, align 4, !tbaa !27
  %47 = getelementptr inbounds nuw i8, ptr %3, i64 48
  %48 = load i64, ptr %47, align 8, !tbaa !28
  %49 = trunc i64 %48 to i32
  %50 = icmp eq i32 %49, 0
  %51 = icmp ne i64 %48, 0
  %or.cond.i.i = and i1 %51, %50
  %..i.i = select i1 %or.cond.i.i, i32 -2147483648, i32 %49
  %52 = getelementptr inbounds nuw i8, ptr %18, i64 32
  store i32 %..i.i, ptr %52, align 4, !tbaa !29
  br label %53

53:                                               ; preds = %17, %11
  call void @llvm.lifetime.end.p0(i64 144, ptr nonnull %3) #9
  ret void
}